; Function Attrs: mustprogress nounwind uwtable
define hidden void @_ZNK13IdealLoopTree18enqueue_data_nodesEP14PhaseIdealLoopR16Unique_Node_ListS3_(ptr noundef nonnull align 8 dereferenceable(113) %0, ptr nocapture noundef readonly %1, ptr noundef nonnull align 8 dereferenceable(68) %2, ptr noundef nonnull align 8 dereferenceable(68) %3) local_unnamed_addr #0 align 2 {
  tail call void @_ZNK13IdealLoopTree23collect_loop_core_nodesEP14PhaseIdealLoopR16Unique_Node_List(ptr noundef nonnull align 8 dereferenceable(113) %0, ptr noundef %1, ptr noundef nonnull align 8 dereferenceable(68) %2)
  %5 = getelementptr inbounds i8, ptr %0, i64 80
  %6 = load i32, ptr %5, align 8
  %.not12 = icmp eq i32 %6, 0
  br i1 %.not12, label %._crit_edge, label %.lr.ph

.lr.ph:                                           ; preds = %4
  %7 = getelementptr inbounds i8, ptr %0, i64 72
  %8 = getelementptr inbounds i8, ptr %2, i64 32
  %9 = getelementptr inbounds i8, ptr %2, i64 40
  %10 = getelementptr inbounds i8, ptr %3, i64 32
  %11 = getelementptr inbounds i8, ptr %3, i64 40
  %12 = getelementptr inbounds i8, ptr %3, i64 24
  %13 = getelementptr inbounds i8, ptr %3, i64 8
  %14 = getelementptr inbounds i8, ptr %3, i64 16
  br label %15

15:                                               ; preds = %.lr.ph, %_ZN16Unique_Node_List4pushEP4Node.exit
  %indvars.iv = phi i64 [ 0, %.lr.ph ], [ %indvars.iv.next, %_ZN16Unique_Node_List4pushEP4Node.exit ]
  %16 = load ptr, ptr %7, align 8
  %17 = getelementptr inbounds ptr, ptr %16, i64 %indvars.iv
  %18 = load ptr, ptr %17, align 8
  %19 = getelementptr inbounds i8, ptr %18, i64 40
  %20 = load i32, ptr %19, align 8
  %21 = lshr i32 %20, 5
  %22 = load i32, ptr %8, align 8
  %.not.i.i = icmp ult i32 %21, %22
  br i1 %.not.i.i, label %_ZN16Unique_Node_List6memberEP4Node.exit, label %_ZN16Unique_Node_List6memberEP4Node.exit.thread

_ZN16Unique_Node_List6memberEP4Node.exit:         ; preds = %15
  %23 = and i32 %20, 31
  %24 = shl nuw i32 1, %23
  %25 = load ptr, ptr %9, align 8
  %26 = zext nneg i32 %21 to i64
  %27 = getelementptr inbounds i32, ptr %25, i64 %26
  %28 = load i32, ptr %27, align 4
  %29 = and i32 %28, %24
  %.not = icmp eq i32 %29, 0
  br i1 %.not, label %_ZN16Unique_Node_List6memberEP4Node.exit.thread, label %_ZN16Unique_Node_List4pushEP4Node.exit

_ZN16Unique_Node_List6memberEP4Node.exit.thread:  ; preds = %15, %_ZN16Unique_Node_List6memberEP4Node.exit
  %30 = load i32, ptr %10, align 8
  %.not.i.i9 = icmp ult i32 %21, %30
  br i1 %.not.i.i9, label %_ZN9VectorSet8test_setEj.exit.i, label %31

31:                                               ; preds = %_ZN16Unique_Node_List6memberEP4Node.exit.thread
  tail call void @_ZN9VectorSet4growEj(ptr noundef nonnull align 8 dereferenceable(32) %10, i32 noundef %21) #11
  br label %_ZN9VectorSet8test_setEj.exit.i

_ZN9VectorSet8test_setEj.exit.i:                  ; preds = %31, %_ZN16Unique_Node_List6memberEP4Node.exit.thread
  %32 = and i32 %20, 31
  %33 = shl nuw i32 1, %32
  %34 = load ptr, ptr %11, align 8
  %35 = zext nneg i32 %21 to i64
  %36 = getelementptr inbounds i32, ptr %34, i64 %35
  %37 = load i32, ptr %36, align 4
  %38 = or i32 %37, %33
  store i32 %38, ptr %36, align 4
  %39 = and i32 %37, %33
  %.not.i = icmp eq i32 %39, 0
  br i1 %.not.i, label %40, label %_ZN16Unique_Node_List4pushEP4Node.exit

40:                                               ; preds = %_ZN9VectorSet8test_setEj.exit.i
  %41 = load i32, ptr %12, align 8
  %42 = add i32 %41, 1
  store i32 %42, ptr %12, align 8
  %43 = load i32, ptr %13, align 8
  %.not.i.i.i = icmp ugt i32 %43, %41
  br i1 %.not.i.i.i, label %_ZN9Node_List4pushEP4Node.exit.i, label %44

44:                                               ; preds = %40
  tail call void @_ZN10Node_Array4growEj(ptr noundef nonnull align 8 dereferenceable(24) %3, i32 noundef %41) #11
  br label %_ZN9Node_List4pushEP4Node.exit.i

_ZN9Node_List4pushEP4Node.exit.i:                 ; preds = %44, %40
  %45 = load ptr, ptr %14, align 8
  %46 = zext i32 %41 to i64
  %47 = getelementptr inbounds ptr, ptr %45, i64 %46
  store ptr %18, ptr %47, align 8
  br label %_ZN16Unique_Node_List4pushEP4Node.exit

_ZN16Unique_Node_List4pushEP4Node.exit:           ; preds = %_ZN9Node_List4pushEP4Node.exit.i, %_ZN9VectorSet8test_setEj.exit.i, %_ZN16Unique_Node_List6memberEP4Node.exit
  %indvars.iv.next = add nuw nsw i64 %indvars.iv, 1
  %48 = load i32, ptr %5, align 8
  %49 = zext i32 %48 to i64
  %50 = icmp ult i64 %indvars.iv.next, %49
  br i1 %50, label %15, label %._crit_edge, !llvm.loop !55

._crit_edge:                                      ; preds = %_ZN16Unique_Node_List4pushEP4Node.exit, %4
  ret void
}